target datalayout = "e-m:e-p270:32:32-p271:32:32-p272:64:64-i64:64-i128:128-f80:128-n8:16:32:64-S128"
target triple = "x86_64-pc-linux-gnu"

%struct.module_state = type { ptr, ptr, ptr, ptr, ptr }

; Function Attrs: nounwind uwtable
define internal i32 @traverse_module_state(ptr noundef %0, ptr noundef %1, ptr noundef %2) #0 {
  %4 = alloca i32, align 4
  %5 = alloca ptr, align 8
  %6 = alloca ptr, align 8
  %7 = alloca ptr, align 8
  %8 = alloca i32, align 4
  %9 = alloca i32, align 4
  %10 = alloca i32, align 4
  %11 = alloca i32, align 4
  %12 = alloca i32, align 4
  %13 = alloca i32, align 4
  store ptr %0, ptr %5, align 8, !tbaa !8
  store ptr %1, ptr %6, align 8, !tbaa !8
  store ptr %2, ptr %7, align 8, !tbaa !8
  br label %14

14:                                               ; preds = %3
  %15 = load ptr, ptr %5, align 8, !tbaa !8
  %16 = getelementptr inbounds nuw %struct.module_state, ptr %15, i32 0, i32 0
  %17 = load ptr, ptr %16, align 8, !tbaa !115
  %18 = icmp ne ptr %17, null
  br i1 %18, label %19, label %34

19:                                               ; preds = %14
  call void @llvm.lifetime.start.p0(i64 4, ptr %8) #8
  %20 = load ptr, ptr %6, align 8, !tbaa !8
  %21 = load ptr, ptr %5, align 8, !tbaa !8
  %22 = getelementptr inbounds nuw %struct.module_state, ptr %21, i32 0, i32 0
  %23 = load ptr, ptr %22, align 8, !tbaa !115
  %24 = load ptr, ptr %7, align 8, !tbaa !8
  %25 = call i32 %20(ptr noundef %23, ptr noundef %24)
  store i32 %25, ptr %8, align 4, !tbaa !9
  %26 = load i32, ptr %8, align 4, !tbaa !9
  %27 = icmp ne i32 %26, 0
  br i1 %27, label %28, label %30

28:                                               ; preds = %19
  %29 = load i32, ptr %8, align 4, !tbaa !9
  store i32 %29, ptr %4, align 4
  store i32 1, ptr %9, align 4
  br label %31

30:                                               ; preds = %19
  store i32 0, ptr %9, align 4
  br label %31

31:                                               ; preds = %30, %28
  call void @llvm.lifetime.end.p0(i64 4, ptr %8) #8
  %32 = load i32, ptr %9, align 4
  switch i32 %32, label %126 [
    i32 0, label %33
    i32 1, label %124
  ]

33:                                               ; preds = %31
  br label %34

34:                                               ; preds = %33, %14
  br label %35

35:                                               ; preds = %34
  br label %36

36:                                               ; preds = %35
  %37 = load ptr, ptr %5, align 8, !tbaa !8
  %38 = getelementptr inbounds nuw %struct.module_state, ptr %37, i32 0, i32 1
  %39 = load ptr, ptr %38, align 8, !tbaa !67
  %40 = icmp ne ptr %39, null
  br i1 %40, label %41, label %56

41:                                               ; preds = %36
  call void @llvm.lifetime.start.p0(i64 4, ptr %10) #8
  %42 = load ptr, ptr %6, align 8, !tbaa !8
  %43 = load ptr, ptr %5, align 8, !tbaa !8
  %44 = getelementptr inbounds nuw %struct.module_state, ptr %43, i32 0, i32 1
  %45 = load ptr, ptr %44, align 8, !tbaa !67
  %46 = load ptr, ptr %7, align 8, !tbaa !8
  %47 = call i32 %42(ptr noundef %45, ptr noundef %46)
  store i32 %47, ptr %10, align 4, !tbaa !9
  %48 = load i32, ptr %10, align 4, !tbaa !9
  %49 = icmp ne i32 %48, 0
  br i1 %49, label %50, label %52

50:                                               ; preds = %41
  %51 = load i32, ptr %10, align 4, !tbaa !9
  store i32 %51, ptr %4, align 4
  store i32 1, ptr %9, align 4
  br label %53

52:                                               ; preds = %41
  store i32 0, ptr %9, align 4
  br label %53

53:                                               ; preds = %52, %50
  call void @llvm.lifetime.end.p0(i64 4, ptr %10) #8
  %54 = load i32, ptr %9, align 4
  switch i32 %54, label %126 [
    i32 0, label %55
    i32 1, label %124
  ]

55:                                               ; preds = %53
  br label %56

56:                                               ; preds = %55, %36
  br label %57

57:                                               ; preds = %56
  br label %58

58:                                               ; preds = %57
  %59 = load ptr, ptr %5, align 8, !tbaa !8
  %60 = getelementptr inbounds nuw %struct.module_state, ptr %59, i32 0, i32 2
  %61 = load ptr, ptr %60, align 8, !tbaa !70
  %62 = icmp ne ptr %61, null
  br i1 %62, label %63, label %78

63:                                               ; preds = %58
  call void @llvm.lifetime.start.p0(i64 4, ptr %11) #8
  %64 = load ptr, ptr %6, align 8, !tbaa !8
  %65 = load ptr, ptr %5, align 8, !tbaa !8
  %66 = getelementptr inbounds nuw %struct.module_state, ptr %65, i32 0, i32 2
  %67 = load ptr, ptr %66, align 8, !tbaa !70
  %68 = load ptr, ptr %7, align 8, !tbaa !8
  %69 = call i32 %64(ptr noundef %67, ptr noundef %68)
  store i32 %69, ptr %11, align 4, !tbaa !9
  %70 = load i32, ptr %11, align 4, !tbaa !9
  %71 = icmp ne i32 %70, 0
  br i1 %71, label %72, label %74

72:                                               ; preds = %63
  %73 = load i32, ptr %11, align 4, !tbaa !9
  store i32 %73, ptr %4, align 4
  store i32 1, ptr %9, align 4
  br label %75

74:                                               ; preds = %63
  store i32 0, ptr %9, align 4
  br label %75

75:                                               ; preds = %74, %72
  call void @llvm.lifetime.end.p0(i64 4, ptr %11) #8
  %76 = load i32, ptr %9, align 4
  switch i32 %76, label %126 [
    i32 0, label %77
    i32 1, label %124
  ]

77:                                               ; preds = %75
  br label %78

78:                                               ; preds = %77, %58
  br label %79

79:                                               ; preds = %78
  br label %80

80:                                               ; preds = %79
  %81 = load ptr, ptr %5, align 8, !tbaa !8
  %82 = getelementptr inbounds nuw %struct.module_state, ptr %81, i32 0, i32 3
  %83 = load ptr, ptr %82, align 8, !tbaa !71
  %84 = icmp ne ptr %83, null
  br i1 %84, label %85, label %100

85:                                               ; preds = %80
  call void @llvm.lifetime.start.p0(i64 4, ptr %12) #8
  %86 = load ptr, ptr %6, align 8, !tbaa !8
  %87 = load ptr, ptr %5, align 8, !tbaa !8
  %88 = getelementptr inbounds nuw %struct.module_state, ptr %87, i32 0, i32 3
  %89 = load ptr, ptr %88, align 8, !tbaa !71
  %90 = load ptr, ptr %7, align 8, !tbaa !8
  %91 = call i32 %86(ptr noundef %89, ptr noundef %90)
  store i32 %91, ptr %12, align 4, !tbaa !9
  %92 = load i32, ptr %12, align 4, !tbaa !9
  %93 = icmp ne i32 %92, 0
  br i1 %93, label %94, label %96

94:                                               ; preds = %85
  %95 = load i32, ptr %12, align 4, !tbaa !9
  store i32 %95, ptr %4, align 4
  store i32 1, ptr %9, align 4
  br label %97

96:                                               ; preds = %85
  store i32 0, ptr %9, align 4
  br label %97

97:                                               ; preds = %96, %94
  call void @llvm.lifetime.end.p0(i64 4, ptr %12) #8
  %98 = load i32, ptr %9, align 4
  switch i32 %98, label %126 [
    i32 0, label %99
    i32 1, label %124
  ]

99:                                               ; preds = %97
  br label %100

100:                                              ; preds = %99, %80
  br label %101

101:                                              ; preds = %100
  br label %102

102:                                              ; preds = %101
  %103 = load ptr, ptr %5, align 8, !tbaa !8
  %104 = getelementptr inbounds nuw %struct.module_state, ptr %103, i32 0, i32 4
  %105 = load ptr, ptr %104, align 8, !tbaa !72
  %106 = icmp ne ptr %105, null
  br i1 %106, label %107, label %122

107:                                              ; preds = %102
  call void @llvm.lifetime.start.p0(i64 4, ptr %13) #8
  %108 = load ptr, ptr %6, align 8, !tbaa !8
  %109 = load ptr, ptr %5, align 8, !tbaa !8
  %110 = getelementptr inbounds nuw %struct.module_state, ptr %109, i32 0, i32 4
  %111 = load ptr, ptr %110, align 8, !tbaa !72
  %112 = load ptr, ptr %7, align 8, !tbaa !8
  %113 = call i32 %108(ptr noundef %111, ptr noundef %112)
  store i32 %113, ptr %13, align 4, !tbaa !9
  %114 = load i32, ptr %13, align 4, !tbaa !9
  %115 = icmp ne i32 %114, 0
  br i1 %115, label %116, label %118

116:                                              ; preds = %107
  %117 = load i32, ptr %13, align 4, !tbaa !9
  store i32 %117, ptr %4, align 4
  store i32 1, ptr %9, align 4
  br label %119

118:                                              ; preds = %107
  store i32 0, ptr %9, align 4
  br label %119

119:                                              ; preds = %118, %116
  call void @llvm.lifetime.end.p0(i64 4, ptr %13) #8
  %120 = load i32, ptr %9, align 4
  switch i32 %120, label %126 [
    i32 0, label %121
    i32 1, label %124
  ]

121:                                              ; preds = %119
  br label %122

122:                                              ; preds = %121, %102
  br label %123

123:                                              ; preds = %122
  store i32 0, ptr %4, align 4
  br label %124

124:                                              ; preds = %123, %119, %97, %75, %53, %31
  %125 = load i32, ptr %4, align 4
  ret i32 %125

126:                                              ; preds = %119, %97, %75, %53, %31
  unreachable
}

; Function Attrs: inlinehint nounwind uwtable
define internal ptr @get_module_state(ptr noundef %0) #5 {
  %2 = alloca ptr, align 8
  %3 = alloca ptr, align 8
  store ptr %0, ptr %2, align 8, !tbaa !3
  call void @llvm.lifetime.start.p0(i64 8, ptr %3) #8
  %4 = load ptr, ptr %2, align 8, !tbaa !3
  %5 = call ptr @PyModule_GetState(ptr noundef %4)
  store ptr %5, ptr %3, align 8, !tbaa !8
  %6 = load ptr, ptr %3, align 8, !tbaa !8
  call void @llvm.lifetime.end.p0(i64 8, ptr %3) #8
  ret ptr %6
}

; Function Attrs: nounwind uwtable
define internal i32 @module_traverse(ptr noundef %0, ptr noundef %1, ptr noundef %2) #0 {
  %4 = alloca ptr, align 8
  %5 = alloca ptr, align 8
  %6 = alloca ptr, align 8
  %7 = alloca ptr, align 8
  store ptr %0, ptr %4, align 8, !tbaa !3
  store ptr %1, ptr %5, align 8, !tbaa !8
  store ptr %2, ptr %6, align 8, !tbaa !8
  call void @llvm.lifetime.start.p0(i64 8, ptr %7) #8
  %8 = load ptr, ptr %4, align 8, !tbaa !3
  %9 = call ptr @get_module_state(ptr noundef %8)
  store ptr %9, ptr %7, align 8, !tbaa !8
  %10 = load ptr, ptr %7, align 8, !tbaa !8
  %11 = load ptr, ptr %5, align 8, !tbaa !8
  %12 = load ptr, ptr %6, align 8, !tbaa !8
  %13 = call i32 @traverse_module_state(ptr noundef %10, ptr noundef %11, ptr noundef %12)
  call void @llvm.lifetime.end.p0(i64 8, ptr %7) #8
  ret i32 0
}