; Function Attrs: nounwind uwtable
define internal noundef i32 @module_traverse(ptr noundef %0, ptr noundef readonly captures(none) %1, ptr noundef %2) #0 {
  %4 = tail call ptr @PyModule_GetState(ptr noundef %0) #6
  %5 = load ptr, ptr %4, align 8, !tbaa !3
  %.not.i = icmp eq ptr %5, null
  br i1 %.not.i, label %8, label %6

6:                                                ; preds = %3
  %7 = tail call i32 %1(ptr noundef nonnull %5, ptr noundef %2) #6
  %.not48.not.i = icmp eq i32 %7, 0
  br i1 %.not48.not.i, label %8, label %traverse_module_state.exit

8:                                                ; preds = %6, %3
  %9 = getelementptr inbounds nuw i8, ptr %4, i64 8
  %10 = load ptr, ptr %9, align 8, !tbaa !10
  %.not49.i = icmp eq ptr %10, null
  br i1 %.not49.i, label %13, label %11

11:                                               ; preds = %8
  %12 = tail call i32 %1(ptr noundef nonnull %10, ptr noundef %2) #6
  %.not50.not.i = icmp eq i32 %12, 0
  br i1 %.not50.not.i, label %13, label %traverse_module_state.exit

13:                                               ; preds = %11, %8
  %14 = getelementptr inbounds nuw i8, ptr %4, i64 16
  %15 = load ptr, ptr %14, align 8, !tbaa !11
  %.not51.i = icmp eq ptr %15, null
  br i1 %.not51.i, label %18, label %16

16:                                               ; preds = %13
  %17 = tail call i32 %1(ptr noundef nonnull %15, ptr noundef %2) #6
  %.not52.not.i = icmp eq i32 %17, 0
  br i1 %.not52.not.i, label %18, label %traverse_module_state.exit

18:                                               ; preds = %16, %13
  %19 = getelementptr inbounds nuw i8, ptr %4, i64 24
  %20 = load ptr, ptr %19, align 8, !tbaa !12
  %.not53.i = icmp eq ptr %20, null
  br i1 %.not53.i, label %23, label %21

21:                                               ; preds = %18
  %22 = tail call i32 %1(ptr noundef nonnull %20, ptr noundef %2) #6
  %.not54.not.i = icmp eq i32 %22, 0
  br i1 %.not54.not.i, label %23, label %traverse_module_state.exit

23:                                               ; preds = %21, %18
  %24 = getelementptr inbounds nuw i8, ptr %4, i64 32
  %25 = load ptr, ptr %24, align 8, !tbaa !13
  %.not55.i = icmp eq ptr %25, null
  br i1 %.not55.i, label %traverse_module_state.exit, label %26

26:                                               ; preds = %23
  %27 = tail call i32 %1(ptr noundef nonnull %25, ptr noundef %2) #6
  br label %traverse_module_state.exit

traverse_module_state.exit:                       ; preds = %26, %23, %6, %11, %16, %21
  ret i32 0
}